target datalayout = "e-m:e-p270:32:32-p271:32:32-p272:64:64-i64:64-i128:128-f80:128-n8:16:32:64-S128"
target triple = "x86_64-pc-linux-gnu"

@Curl_cfree = external global ptr, align 8

; Function Attrs: nounwind uwtable
define internal i32 @setstropt_interface(ptr noundef %0, ptr noundef %1, ptr noundef %2, ptr noundef %3) #0 {
  %5 = alloca i32, align 4
  %6 = alloca ptr, align 8
  %7 = alloca ptr, align 8
  %8 = alloca ptr, align 8
  %9 = alloca ptr, align 8
  %10 = alloca ptr, align 8
  %11 = alloca ptr, align 8
  %12 = alloca ptr, align 8
  %13 = alloca i32, align 4
  %14 = alloca i32, align 4
  store ptr %0, ptr %6, align 8, !tbaa !8
  store ptr %1, ptr %7, align 8, !tbaa !3
  store ptr %2, ptr %8, align 8, !tbaa !3
  store ptr %3, ptr %9, align 8, !tbaa !3
  call void @llvm.lifetime.start.p0(i64 8, ptr %10) #7
  store ptr null, ptr %10, align 8, !tbaa !8
  call void @llvm.lifetime.start.p0(i64 8, ptr %11) #7
  store ptr null, ptr %11, align 8, !tbaa !8
  call void @llvm.lifetime.start.p0(i64 8, ptr %12) #7
  store ptr null, ptr %12, align 8, !tbaa !8
  call void @llvm.lifetime.start.p0(i64 4, ptr %13) #7
  br label %15

15:                                               ; preds = %4
  br label %16

16:                                               ; preds = %15
  br label %17

17:                                               ; preds = %16
  br label %18

18:                                               ; preds = %17
  br label %19

19:                                               ; preds = %18
  br label %20

20:                                               ; preds = %19
  br label %21

21:                                               ; preds = %20
  br label %22

22:                                               ; preds = %21
  br label %23

23:                                               ; preds = %22
  %24 = load ptr, ptr %6, align 8, !tbaa !8
  %25 = icmp ne ptr %24, null
  br i1 %25, label %26, label %34

26:                                               ; preds = %23
  %27 = load ptr, ptr %6, align 8, !tbaa !8
  %28 = call i32 @Curl_parse_interface(ptr noundef %27, ptr noundef %10, ptr noundef %11, ptr noundef %12)
  store i32 %28, ptr %13, align 4, !tbaa !22
  %29 = load i32, ptr %13, align 4, !tbaa !22
  %30 = icmp ne i32 %29, 0
  br i1 %30, label %31, label %33

31:                                               ; preds = %26
  %32 = load i32, ptr %13, align 4, !tbaa !22
  store i32 %32, ptr %5, align 4
  store i32 1, ptr %14, align 4
  br label %50

33:                                               ; preds = %26
  br label %34

34:                                               ; preds = %33, %23
  %35 = load ptr, ptr @Curl_cfree, align 8, !tbaa !10
  %36 = load ptr, ptr %7, align 8, !tbaa !3
  %37 = load ptr, ptr %36, align 8, !tbaa !8
  call void %35(ptr noundef %37)
  %38 = load ptr, ptr %10, align 8, !tbaa !8
  %39 = load ptr, ptr %7, align 8, !tbaa !3
  store ptr %38, ptr %39, align 8, !tbaa !8
  %40 = load ptr, ptr @Curl_cfree, align 8, !tbaa !10
  %41 = load ptr, ptr %8, align 8, !tbaa !3
  %42 = load ptr, ptr %41, align 8, !tbaa !8
  call void %40(ptr noundef %42)
  %43 = load ptr, ptr %11, align 8, !tbaa !8
  %44 = load ptr, ptr %8, align 8, !tbaa !3
  store ptr %43, ptr %44, align 8, !tbaa !8
  %45 = load ptr, ptr @Curl_cfree, align 8, !tbaa !10
  %46 = load ptr, ptr %9, align 8, !tbaa !3
  %47 = load ptr, ptr %46, align 8, !tbaa !8
  call void %45(ptr noundef %47)
  %48 = load ptr, ptr %12, align 8, !tbaa !8
  %49 = load ptr, ptr %9, align 8, !tbaa !3
  store ptr %48, ptr %49, align 8, !tbaa !8
  store i32 0, ptr %5, align 4
  store i32 1, ptr %14, align 4
  br label %50

50:                                               ; preds = %34, %31
  call void @llvm.lifetime.end.p0(i64 4, ptr %13) #7
  call void @llvm.lifetime.end.p0(i64 8, ptr %12) #7
  call void @llvm.lifetime.end.p0(i64 8, ptr %11) #7
  call void @llvm.lifetime.end.p0(i64 8, ptr %10) #7
  %51 = load i32, ptr %5, align 4
  ret i32 %51
}