; Function Attrs: nounwind uwtable
define internal fastcc i32 @setstropt_interface(ptr noundef %0, ptr noundef captures(none) %1, ptr noundef captures(none) %2, ptr noundef captures(none) %3) unnamed_addr #0 {
  %5 = alloca ptr, align 8
  %6 = alloca ptr, align 8
  %7 = alloca ptr, align 8
  call void @llvm.lifetime.start.p0(i64 8, ptr nonnull %5) #10
  store ptr null, ptr %5, align 8, !tbaa !7
  call void @llvm.lifetime.start.p0(i64 8, ptr nonnull %6) #10
  store ptr null, ptr %6, align 8, !tbaa !7
  call void @llvm.lifetime.start.p0(i64 8, ptr nonnull %7) #10
  store ptr null, ptr %7, align 8, !tbaa !7
  %.not = icmp eq ptr %0, null
  br i1 %.not, label %10, label %8

8:                                                ; preds = %4
  %9 = call i32 @Curl_parse_interface(ptr noundef nonnull %0, ptr noundef nonnull %5, ptr noundef nonnull %6, ptr noundef nonnull %7) #10
  %.not12 = icmp eq i32 %9, 0
  br i1 %.not12, label %10, label %20

10:                                               ; preds = %8, %4
  %11 = load ptr, ptr @Curl_cfree, align 8, !tbaa !3
  %12 = load ptr, ptr %1, align 8, !tbaa !7
  call void %11(ptr noundef %12) #10
  %13 = load ptr, ptr %5, align 8, !tbaa !7
  store ptr %13, ptr %1, align 8, !tbaa !7
  %14 = load ptr, ptr @Curl_cfree, align 8, !tbaa !3
  %15 = load ptr, ptr %2, align 8, !tbaa !7
  call void %14(ptr noundef %15) #10
  %16 = load ptr, ptr %6, align 8, !tbaa !7
  store ptr %16, ptr %2, align 8, !tbaa !7
  %17 = load ptr, ptr @Curl_cfree, align 8, !tbaa !3
  %18 = load ptr, ptr %3, align 8, !tbaa !7
  call void %17(ptr noundef %18) #10
  %19 = load ptr, ptr %7, align 8, !tbaa !7
  store ptr %19, ptr %3, align 8, !tbaa !7
  br label %20

20:                                               ; preds = %8, %10
  %.0 = phi i32 [ 0, %10 ], [ %9, %8 ]
  call void @llvm.lifetime.end.p0(i64 8, ptr nonnull %7) #10
  call void @llvm.lifetime.end.p0(i64 8, ptr nonnull %6) #10
  call void @llvm.lifetime.end.p0(i64 8, ptr nonnull %5) #10
  ret i32 %.0
}